target datalayout = "e-m:e-p270:32:32-p271:32:32-p272:64:64-i64:64-i128:128-f80:128-n8:16:32:64-S128"
target triple = "x86_64-pc-linux-gnu"

@php_internal_encoding_changed = dso_local global ptr null, align 8

; Function Attrs: nounwind uwtable
define internal i32 @OnUpdateInternalEncoding(ptr noundef %0, ptr noundef %1, ptr noundef %2, ptr noundef %3, ptr noundef %4, i32 noundef %5) #1 {
  %7 = alloca ptr, align 8
  %8 = alloca ptr, align 8
  %9 = alloca ptr, align 8
  %10 = alloca ptr, align 8
  %11 = alloca ptr, align 8
  %12 = alloca i32, align 4
  store ptr %0, ptr %7, align 8, !tbaa !243
  store ptr %1, ptr %8, align 8, !tbaa !54
  store ptr %2, ptr %9, align 8, !tbaa !56
  store ptr %3, ptr %10, align 8, !tbaa !56
  store ptr %4, ptr %11, align 8, !tbaa !56
  store i32 %5, ptr %12, align 4, !tbaa !50
  %13 = load ptr, ptr %7, align 8, !tbaa !243
  %14 = load ptr, ptr %8, align 8, !tbaa !54
  %15 = load ptr, ptr %9, align 8, !tbaa !56
  %16 = load ptr, ptr %10, align 8, !tbaa !56
  %17 = load ptr, ptr %11, align 8, !tbaa !56
  %18 = load i32, ptr %12, align 4, !tbaa !50
  %19 = call i32 @OnUpdateString(ptr noundef %13, ptr noundef %14, ptr noundef %15, ptr noundef %16, ptr noundef %17, i32 noundef %18)
  %20 = load ptr, ptr @php_internal_encoding_changed, align 8, !tbaa !56
  %21 = icmp ne ptr %20, null
  br i1 %21, label %22, label %24

22:                                               ; preds = %6
  %23 = load ptr, ptr @php_internal_encoding_changed, align 8, !tbaa !56
  call void %23()
  br label %24

24:                                               ; preds = %22, %6
  %25 = load ptr, ptr %8, align 8, !tbaa !54
  %26 = icmp ne ptr %25, null
  br i1 %26, label %27, label %28

27:                                               ; preds = %24
  br label %28

28:                                               ; preds = %27, %24
  ret i32 0
}