; Function Attrs: nounwind uwtable
define internal noundef i32 @OnUpdateInternalEncoding(ptr noundef %0, ptr noundef %1, ptr noundef %2, ptr noundef %3, ptr noundef %4, i32 noundef %5) #2 {
  %7 = tail call i32 @OnUpdateString(ptr noundef %0, ptr noundef %1, ptr noundef %2, ptr noundef %3, ptr noundef %4, i32 noundef %5) #28
  %8 = load ptr, ptr @php_internal_encoding_changed, align 8, !tbaa !148
  %.not = icmp eq ptr %8, null
  br i1 %.not, label %10, label %9

9:                                                ; preds = %6
  tail call void %8() #28
  br label %10

10:                                               ; preds = %9, %6
  ret i32 0
}